target datalayout = "e-m:e-p270:32:32-p271:32:32-p272:64:64-i64:64-i128:128-f80:128-n8:16:32:64-S128"
target triple = "x86_64-pc-linux-gnu"

%"class.icu_77::UCharCharacterIterator" = type { %"class.icu_77::CharacterIterator", ptr }
%"class.icu_77::CharacterIterator" = type { %"class.icu_77::ForwardCharacterIterator", i32, i32, i32, i32 }
%"class.icu_77::ForwardCharacterIterator" = type { %"class.icu_77::UObject" }
%"class.icu_77::UObject" = type { ptr }
%"class.std::type_info" = type { ptr, ptr }

; Function Attrs: mustprogress nounwind uwtable
define linkonce_odr noundef ptr @_ZNKSt9type_info4nameEv(ptr noundef nonnull align 8 dereferenceable(16) %0) #0 comdat align 2 {
  %2 = alloca ptr, align 8
  store ptr %0, ptr %2, align 8, !tbaa !26
  %3 = load ptr, ptr %2, align 8
  %4 = getelementptr inbounds nuw %"class.std::type_info", ptr %3, i32 0, i32 1
  %5 = load ptr, ptr %4, align 8, !tbaa !43
  %6 = getelementptr inbounds i8, ptr %5, i64 0
  %7 = load i8, ptr %6, align 1, !tbaa !46
  %8 = sext i8 %7 to i32
  %9 = icmp eq i32 %8, 42
  br i1 %9, label %10, label %14

10:                                               ; preds = %1
  %11 = getelementptr inbounds nuw %"class.std::type_info", ptr %3, i32 0, i32 1
  %12 = load ptr, ptr %11, align 8, !tbaa !43
  %13 = getelementptr inbounds i8, ptr %12, i64 1
  br label %17

14:                                               ; preds = %1
  %15 = getelementptr inbounds nuw %"class.std::type_info", ptr %3, i32 0, i32 1
  %16 = load ptr, ptr %15, align 8, !tbaa !43
  br label %17

17:                                               ; preds = %14, %10
  %18 = phi ptr [ %13, %10 ], [ %16, %14 ]
  ret ptr %18
}

; Function Attrs: inlinehint mustprogress nounwind uwtable
define linkonce_odr noundef zeroext i1 @_ZNKSt9type_infoeqERKS_(ptr noundef nonnull align 8 dereferenceable(16) %0, ptr noundef nonnull align 8 dereferenceable(16) %1) #6 comdat align 2 {
  %3 = alloca i1, align 1
  %4 = alloca ptr, align 8
  %5 = alloca ptr, align 8
  store ptr %0, ptr %4, align 8, !tbaa !26
  store ptr %1, ptr %5, align 8, !tbaa !26
  %6 = load ptr, ptr %4, align 8
  %7 = getelementptr inbounds nuw %"class.std::type_info", ptr %6, i32 0, i32 1
  %8 = load ptr, ptr %7, align 8, !tbaa !43
  %9 = load ptr, ptr %5, align 8, !tbaa !26
  %10 = getelementptr inbounds nuw %"class.std::type_info", ptr %9, i32 0, i32 1
  %11 = load ptr, ptr %10, align 8, !tbaa !43
  %12 = icmp eq ptr %8, %11
  br i1 %12, label %13, label %14

13:                                               ; preds = %2
  store i1 true, ptr %3, align 1
  br label %30

14:                                               ; preds = %2
  %15 = getelementptr inbounds nuw %"class.std::type_info", ptr %6, i32 0, i32 1
  %16 = load ptr, ptr %15, align 8, !tbaa !43
  %17 = getelementptr inbounds i8, ptr %16, i64 0
  %18 = load i8, ptr %17, align 1, !tbaa !46
  %19 = sext i8 %18 to i32
  %20 = icmp ne i32 %19, 42
  br i1 %20, label %21, label %28

21:                                               ; preds = %14
  %22 = getelementptr inbounds nuw %"class.std::type_info", ptr %6, i32 0, i32 1
  %23 = load ptr, ptr %22, align 8, !tbaa !43
  %24 = load ptr, ptr %5, align 8, !tbaa !26
  %25 = call noundef ptr @_ZNKSt9type_info4nameEv(ptr noundef nonnull align 8 dereferenceable(16) %24) #7
  %26 = call i32 @strcmp(ptr noundef %23, ptr noundef %25) #7
  %27 = icmp eq i32 %26, 0
  br label %28

28:                                               ; preds = %21, %14
  %29 = phi i1 [ false, %14 ], [ %27, %21 ]
  store i1 %29, ptr %3, align 1
  br label %30

30:                                               ; preds = %28, %13
  %31 = load i1, ptr %3, align 1
  ret i1 %31
}

; Function Attrs: mustprogress nounwind uwtable
define linkonce_odr noundef zeroext i1 @_ZNKSt9type_infoneERKS_(ptr noundef nonnull align 8 dereferenceable(16) %0, ptr noundef nonnull align 8 dereferenceable(16) %1) #0 comdat align 2 {
  %3 = alloca ptr, align 8
  %4 = alloca ptr, align 8
  store ptr %0, ptr %3, align 8, !tbaa !26
  store ptr %1, ptr %4, align 8, !tbaa !26
  %5 = load ptr, ptr %3, align 8
  %6 = load ptr, ptr %4, align 8, !tbaa !26
  %7 = call noundef zeroext i1 @_ZNKSt9type_infoeqERKS_(ptr noundef nonnull align 8 dereferenceable(16) %5, ptr noundef nonnull align 8 dereferenceable(16) %6) #7
  %8 = xor i1 %7, true
  ret i1 %8
}

; Function Attrs: mustprogress uwtable
define noundef zeroext i1 @_ZNK6icu_7722UCharCharacterIteratoreqERKNS_24ForwardCharacterIteratorE(ptr noundef nonnull align 8 dereferenceable(32) %0, ptr noundef nonnull align 8 dereferenceable(8) %1) unnamed_addr #1 align 2 {
  %3 = alloca i1, align 1
  %4 = alloca ptr, align 8
  %5 = alloca ptr, align 8
  %6 = alloca ptr, align 8
  store ptr %0, ptr %4, align 8, !tbaa !3
  store ptr %1, ptr %5, align 8, !tbaa !20
  %7 = load ptr, ptr %4, align 8
  %8 = load ptr, ptr %5, align 8, !tbaa !20
  %9 = icmp eq ptr %7, %8
  br i1 %9, label %10, label %11

10:                                               ; preds = %2
  store i1 true, ptr %3, align 1
  br label %62

11:                                               ; preds = %2
  %12 = icmp eq ptr %7, null
  br i1 %12, label %13, label %14

13:                                               ; preds = %11
  call void @__cxa_bad_typeid() #8
  unreachable

14:                                               ; preds = %11
  %15 = load ptr, ptr %7, align 8, !tbaa !8
  %16 = getelementptr inbounds ptr, ptr %15, i64 -1
  %17 = load ptr, ptr %16, align 8
  %18 = load ptr, ptr %5, align 8, !tbaa !20
  %19 = load ptr, ptr %18, align 8, !tbaa !8
  %20 = getelementptr inbounds ptr, ptr %19, i64 -1
  %21 = load ptr, ptr %20, align 8
  %22 = call noundef zeroext i1 @_ZNKSt9type_infoneERKS_(ptr noundef nonnull align 8 dereferenceable(16) %17, ptr noundef nonnull align 8 dereferenceable(16) %21) #7
  br i1 %22, label %23, label %24

23:                                               ; preds = %14
  store i1 false, ptr %3, align 1
  br label %62

24:                                               ; preds = %14
  call void @llvm.lifetime.start.p0(i64 8, ptr %6) #7
  %25 = load ptr, ptr %5, align 8, !tbaa !20
  store ptr %25, ptr %6, align 8, !tbaa !3
  %26 = getelementptr inbounds nuw %"class.icu_77::UCharCharacterIterator", ptr %7, i32 0, i32 1
  %27 = load ptr, ptr %26, align 8, !tbaa !10
  %28 = load ptr, ptr %6, align 8, !tbaa !3
  %29 = getelementptr inbounds nuw %"class.icu_77::UCharCharacterIterator", ptr %28, i32 0, i32 1
  %30 = load ptr, ptr %29, align 8, !tbaa !10
  %31 = icmp eq ptr %27, %30
  br i1 %31, label %32, label %60

32:                                               ; preds = %24
  %33 = getelementptr inbounds nuw %"class.icu_77::CharacterIterator", ptr %7, i32 0, i32 1
  %34 = load i32, ptr %33, align 8, !tbaa !22
  %35 = load ptr, ptr %6, align 8, !tbaa !3
  %36 = getelementptr inbounds nuw %"class.icu_77::CharacterIterator", ptr %35, i32 0, i32 1
  %37 = load i32, ptr %36, align 8, !tbaa !22
  %38 = icmp eq i32 %34, %37
  br i1 %38, label %39, label %60

39:                                               ; preds = %32
  %40 = getelementptr inbounds nuw %"class.icu_77::CharacterIterator", ptr %7, i32 0, i32 2
  %41 = load i32, ptr %40, align 4, !tbaa !23
  %42 = load ptr, ptr %6, align 8, !tbaa !3
  %43 = getelementptr inbounds nuw %"class.icu_77::CharacterIterator", ptr %42, i32 0, i32 2
  %44 = load i32, ptr %43, align 4, !tbaa !23
  %45 = icmp eq i32 %41, %44
  br i1 %45, label %46, label %60

46:                                               ; preds = %39
  %47 = getelementptr inbounds nuw %"class.icu_77::CharacterIterator", ptr %7, i32 0, i32 3
  %48 = load i32, ptr %47, align 8, !tbaa !24
  %49 = load ptr, ptr %6, align 8, !tbaa !3
  %50 = getelementptr inbounds nuw %"class.icu_77::CharacterIterator", ptr %49, i32 0, i32 3
  %51 = load i32, ptr %50, align 8, !tbaa !24
  %52 = icmp eq i32 %48, %51
  br i1 %52, label %53, label %60

53:                                               ; preds = %46
  %54 = getelementptr inbounds nuw %"class.icu_77::CharacterIterator", ptr %7, i32 0, i32 4
  %55 = load i32, ptr %54, align 4, !tbaa !25
  %56 = load ptr, ptr %6, align 8, !tbaa !3
  %57 = getelementptr inbounds nuw %"class.icu_77::CharacterIterator", ptr %56, i32 0, i32 4
  %58 = load i32, ptr %57, align 4, !tbaa !25
  %59 = icmp eq i32 %55, %58
  br label %60

60:                                               ; preds = %53, %46, %39, %32, %24
  %61 = phi i1 [ false, %46 ], [ false, %39 ], [ false, %32 ], [ false, %24 ], [ %59, %53 ]
  store i1 %61, ptr %3, align 1
  call void @llvm.lifetime.end.p0(i64 8, ptr %6) #7
  br label %62

62:                                               ; preds = %60, %23, %10
  %63 = load i1, ptr %3, align 1
  ret i1 %63
}