; Function Attrs: mustprogress nofree nounwind willreturn memory(read, inaccessiblemem: none) uwtable
define noundef zeroext i1 @_ZNK6icu_7722UCharCharacterIteratoreqERKNS_24ForwardCharacterIteratorE(ptr noundef nonnull readonly align 8 dereferenceable(32) %0, ptr noundef nonnull readonly align 8 dereferenceable(8) %1) unnamed_addr #5 align 2 {
  %3 = icmp eq ptr %0, %1
  br i1 %3, label %_ZNKSt9type_infoneERKS_.exit.thread, label %4

4:                                                ; preds = %2
  %5 = load ptr, ptr %0, align 8, !tbaa !3
  %6 = getelementptr inbounds i8, ptr %5, i64 -8
  %7 = load ptr, ptr %6, align 8
  %8 = load ptr, ptr %1, align 8, !tbaa !3
  %9 = getelementptr inbounds i8, ptr %8, i64 -8
  %10 = load ptr, ptr %9, align 8
  %11 = getelementptr inbounds nuw i8, ptr %7, i64 8
  %12 = load ptr, ptr %11, align 8, !tbaa !17
  %13 = getelementptr inbounds nuw i8, ptr %10, i64 8
  %14 = load ptr, ptr %13, align 8, !tbaa !17
  %15 = icmp eq ptr %12, %14
  br i1 %15, label %_ZNKSt9type_infoneERKS_.exit.thread13, label %16

16:                                               ; preds = %4
  %17 = load i8, ptr %12, align 1, !tbaa !20
  %.not.i.i = icmp eq i8 %17, 42
  br i1 %.not.i.i, label %_ZNKSt9type_infoneERKS_.exit.thread, label %_ZNKSt9type_infoneERKS_.exit

_ZNKSt9type_infoneERKS_.exit:                     ; preds = %16
  %18 = load i8, ptr %14, align 1, !tbaa !20
  %19 = icmp eq i8 %18, 42
  %.idx.i.i.i = zext i1 %19 to i64
  %20 = getelementptr inbounds nuw i8, ptr %14, i64 %.idx.i.i.i
  %21 = tail call i32 @strcmp(ptr noundef nonnull dereferenceable(1) %12, ptr noundef nonnull dereferenceable(1) %20) #14
  %.not = icmp eq i32 %21, 0
  br i1 %.not, label %_ZNKSt9type_infoneERKS_.exit.thread13, label %_ZNKSt9type_infoneERKS_.exit.thread

_ZNKSt9type_infoneERKS_.exit.thread13:            ; preds = %4, %_ZNKSt9type_infoneERKS_.exit
  %22 = getelementptr inbounds nuw i8, ptr %0, i64 24
  %23 = load ptr, ptr %22, align 8, !tbaa !6
  %24 = getelementptr inbounds nuw i8, ptr %1, i64 24
  %25 = load ptr, ptr %24, align 8, !tbaa !6
  %26 = icmp eq ptr %23, %25
  br i1 %26, label %27, label %_ZNKSt9type_infoneERKS_.exit.thread

27:                                               ; preds = %_ZNKSt9type_infoneERKS_.exit.thread13
  %28 = getelementptr inbounds nuw i8, ptr %0, i64 8
  %29 = load i32, ptr %28, align 8, !tbaa !21
  %30 = getelementptr inbounds nuw i8, ptr %1, i64 8
  %31 = load i32, ptr %30, align 8, !tbaa !21
  %32 = icmp eq i32 %29, %31
  br i1 %32, label %33, label %_ZNKSt9type_infoneERKS_.exit.thread

33:                                               ; preds = %27
  %34 = getelementptr inbounds nuw i8, ptr %0, i64 12
  %35 = load i32, ptr %34, align 4, !tbaa !22
  %36 = getelementptr inbounds nuw i8, ptr %1, i64 12
  %37 = load i32, ptr %36, align 4, !tbaa !22
  %38 = icmp eq i32 %35, %37
  br i1 %38, label %39, label %_ZNKSt9type_infoneERKS_.exit.thread

39:                                               ; preds = %33
  %40 = getelementptr inbounds nuw i8, ptr %0, i64 16
  %41 = load i32, ptr %40, align 8, !tbaa !23
  %42 = getelementptr inbounds nuw i8, ptr %1, i64 16
  %43 = load i32, ptr %42, align 8, !tbaa !23
  %44 = icmp eq i32 %41, %43
  br i1 %44, label %45, label %_ZNKSt9type_infoneERKS_.exit.thread

45:                                               ; preds = %39
  %46 = getelementptr inbounds nuw i8, ptr %0, i64 20
  %47 = load i32, ptr %46, align 4, !tbaa !24
  %48 = getelementptr inbounds nuw i8, ptr %1, i64 20
  %49 = load i32, ptr %48, align 4, !tbaa !24
  %50 = icmp eq i32 %47, %49
  br label %_ZNKSt9type_infoneERKS_.exit.thread

_ZNKSt9type_infoneERKS_.exit.thread:              ; preds = %16, %_ZNKSt9type_infoneERKS_.exit.thread13, %27, %33, %39, %45, %_ZNKSt9type_infoneERKS_.exit, %2
  %.0 = phi i1 [ true, %2 ], [ false, %_ZNKSt9type_infoneERKS_.exit ], [ false, %39 ], [ false, %33 ], [ false, %27 ], [ false, %_ZNKSt9type_infoneERKS_.exit.thread13 ], [ %50, %45 ], [ false, %16 ]
  ret i1 %.0
}